target datalayout = "e-m:e-p270:32:32-p271:32:32-p272:64:64-i64:64-f80:128-n8:16:32:64-S128"
target triple = "x86_64-pc-linux-gnu"

@.str = private unnamed_addr constant [4 x i8] c"%d\0A\00", align 1
@.str.1 = private unnamed_addr constant [3 x i8] c"%c\00", align 1
@.str.2 = private unnamed_addr constant [2 x i8] c"\0A\00", align 1
@.str.3 = private unnamed_addr constant [4 x i8] c"NO\0A\00", align 1

; Function Attrs: noinline nounwind uwtable
define dso_local i32 @main() #0 {
  %1 = alloca i32, align 4
  %2 = alloca [2000 x i32], align 16
  %3 = alloca i32, align 4
  %4 = alloca i32, align 4
  %5 = alloca i32, align 4
  %6 = alloca i32, align 4
  %7 = alloca i32, align 4
  %8 = alloca i32, align 4
  %9 = alloca i32, align 4
  %10 = alloca i32, align 4
  %11 = alloca [3000 x i8], align 16
  %12 = alloca [10 x i8], align 1
  store i32 0, i32* %1, align 4
  %13 = bitcast [2000 x i32]* %2 to i8*
  call void @llvm.memset.p0i8.i64(i8* align 16 %13, i8 0, i64 8000, i1 false)
  store i32 0, i32* %10, align 4
  %14 = call i32 (i8*, ...) @__isoc99_scanf(i8* getelementptr inbounds ([4 x i8], [4 x i8]* @.str, i64 0, i64 0), i32* %3)
  %15 = getelementptr inbounds [3000 x i8], [3000 x i8]* %11, i64 0, i64 0
  %16 = call i32 (i8*, ...) bitcast (i32 (...)* @gets to i32 (i8*, ...)*)(i8* %15)
  %17 = getelementptr inbounds [3000 x i8], [3000 x i8]* %11, i64 0, i64 0
  %18 = call i64 @strlen(i8* %17) #4
  %19 = trunc i64 %18 to i32
  store i32 %19, i32* %8, align 4
  store i32 0, i32* %4, align 4
  br label %20

20:                                               ; preds = %95, %0
  %21 = load i32, i32* %4, align 4
  %22 = load i32, i32* %8, align 4
  %23 = load i32, i32* %3, align 4
  %24 = sub nsw i32 %22, %23
  %25 = icmp slt i32 %21, %24
  br i1 %25, label %26, label %98

26:                                               ; preds = %20
  store i32 0, i32* %5, align 4
  br label %27

27:                                               ; preds = %41, %26
  %28 = load i32, i32* %5, align 4
  %29 = load i32, i32* %3, align 4
  %30 = icmp slt i32 %28, %29
  br i1 %30, label %31, label %44

31:                                               ; preds = %27
  %32 = load i32, i32* %4, align 4
  %33 = load i32, i32* %5, align 4
  %34 = add nsw i32 %32, %33
  %35 = sext i32 %34 to i64
  %36 = getelementptr inbounds [3000 x i8], [3000 x i8]* %11, i64 0, i64 %35
  %37 = load i8, i8* %36, align 1
  %38 = load i32, i32* %5, align 4
  %39 = sext i32 %38 to i64
  %40 = getelementptr inbounds [10 x i8], [10 x i8]* %12, i64 0, i64 %39
  store i8 %37, i8* %40, align 1
  br label %41

41:                                               ; preds = %31
  %42 = load i32, i32* %5, align 4
  %43 = add nsw i32 %42, 1
  store i32 %43, i32* %5, align 4
  br label %27

44:                                               ; preds = %27
  %45 = load i32, i32* %4, align 4
  %46 = sext i32 %45 to i64
  %47 = getelementptr inbounds [2000 x i32], [2000 x i32]* %2, i64 0, i64 %46
  store i32 1, i32* %47, align 4
  %48 = load i32, i32* %4, align 4
  %49 = add nsw i32 %48, 1
  store i32 %49, i32* %6, align 4
  br label %50

50:                                               ; preds = %91, %44
  %51 = load i32, i32* %6, align 4
  %52 = load i32, i32* %8, align 4
  %53 = icmp slt i32 %51, %52
  br i1 %53, label %54, label %94

54:                                               ; preds = %50
  store i32 0, i32* %5, align 4
  br label %55

55:                                               ; preds = %87, %54
  %56 = load i32, i32* %5, align 4
  %57 = load i32, i32* %3, align 4
  %58 = icmp slt i32 %56, %57
  br i1 %58, label %59, label %90

59:                                               ; preds = %55
  %60 = load i32, i32* %5, align 4
  %61 = sext i32 %60 to i64
  %62 = getelementptr inbounds [10 x i8], [10 x i8]* %12, i64 0, i64 %61
  %63 = load i8, i8* %62, align 1
  %64 = sext i8 %63 to i32
  %65 = load i32, i32* %6, align 4
  %66 = load i32, i32* %5, align 4
  %67 = add nsw i32 %65, %66
  %68 = sext i32 %67 to i64
  %69 = getelementptr inbounds [3000 x i8], [3000 x i8]* %11, i64 0, i64 %68
  %70 = load i8, i8* %69, align 1
  %71 = sext i8 %70 to i32
  %72 = icmp eq i32 %64, %71
  br i1 %72, label %73, label %85

73:                                               ; preds = %59
  %74 = load i32, i32* %5, align 4
  %75 = load i32, i32* %3, align 4
  %76 = sub nsw i32 %75, 1
  %77 = icmp eq i32 %74, %76
  br i1 %77, label %78, label %84

78:                                               ; preds = %73
  %79 = load i32, i32* %4, align 4
  %80 = sext i32 %79 to i64
  %81 = getelementptr inbounds [2000 x i32], [2000 x i32]* %2, i64 0, i64 %80
  %82 = load i32, i32* %81, align 4
  %83 = add nsw i32 %82, 1
  store i32 %83, i32* %81, align 4
  br label %84

84:                                               ; preds = %78, %73
  br label %86

85:                                               ; preds = %59
  br label %90

86:                                               ; preds = %84
  br label %87

87:                                               ; preds = %86
  %88 = load i32, i32* %5, align 4
  %89 = add nsw i32 %88, 1
  store i32 %89, i32* %5, align 4
  br label %55

90:                                               ; preds = %85, %55
  br label %91

91:                                               ; preds = %90
  %92 = load i32, i32* %6, align 4
  %93 = add nsw i32 %92, 1
  store i32 %93, i32* %6, align 4
  br label %50

94:                                               ; preds = %50
  br label %95

95:                                               ; preds = %94
  %96 = load i32, i32* %4, align 4
  %97 = add nsw i32 %96, 1
  store i32 %97, i32* %4, align 4
  br label %20

98:                                               ; preds = %20
  store i32 0, i32* %9, align 4
  store i32 0, i32* %4, align 4
  br label %99

99:                                               ; preds = %116, %98
  %100 = load i32, i32* %4, align 4
  %101 = load i32, i32* %8, align 4
  %102 = icmp slt i32 %100, %101
  br i1 %102, label %103, label %119

103:                                              ; preds = %99
  %104 = load i32, i32* %4, align 4
  %105 = sext i32 %104 to i64
  %106 = getelementptr inbounds [2000 x i32], [2000 x i32]* %2, i64 0, i64 %105
  %107 = load i32, i32* %106, align 4
  %108 = load i32, i32* %9, align 4
  %109 = icmp sgt i32 %107, %108
  br i1 %109, label %110, label %115

110:                                              ; preds = %103
  %111 = load i32, i32* %4, align 4
  %112 = sext i32 %111 to i64
  %113 = getelementptr inbounds [2000 x i32], [2000 x i32]* %2, i64 0, i64 %112
  %114 = load i32, i32* %113, align 4
  store i32 %114, i32* %9, align 4
  br label %115

115:                                              ; preds = %110, %103
  br label %116

116:                                              ; preds = %115
  %117 = load i32, i32* %4, align 4
  %118 = add nsw i32 %117, 1
  store i32 %118, i32* %4, align 4
  br label %99

119:                                              ; preds = %99
  %120 = load i32, i32* %9, align 4
  %121 = icmp sgt i32 %120, 1
  br i1 %121, label %122, label %160

122:                                              ; preds = %119
  %123 = load i32, i32* %9, align 4
  %124 = call i32 (i8*, ...) @printf(i8* getelementptr inbounds ([4 x i8], [4 x i8]* @.str, i64 0, i64 0), i32 %123)
  store i32 0, i32* %4, align 4
  br label %125

125:                                              ; preds = %156, %122
  %126 = load i32, i32* %4, align 4
  %127 = load i32, i32* %8, align 4
  %128 = icmp slt i32 %126, %127
  br i1 %128, label %129, label %159

129:                                              ; preds = %125
  %130 = load i32, i32* %4, align 4
  %131 = sext i32 %130 to i64
  %132 = getelementptr inbounds [2000 x i32], [2000 x i32]* %2, i64 0, i64 %131
  %133 = load i32, i32* %132, align 4
  %134 = load i32, i32* %9, align 4
  %135 = icmp eq i32 %133, %134
  br i1 %135, label %136, label %155

136:                                              ; preds = %129
  store i32 0, i32* %5, align 4
  br label %137

137:                                              ; preds = %150, %136
  %138 = load i32, i32* %5, align 4
  %139 = load i32, i32* %3, align 4
  %140 = icmp slt i32 %138, %139
  br i1 %140, label %141, label %153

141:                                              ; preds = %137
  %142 = load i32, i32* %4, align 4
  %143 = load i32, i32* %5, align 4
  %144 = add nsw i32 %142, %143
  %145 = sext i32 %144 to i64
  %146 = getelementptr inbounds [3000 x i8], [3000 x i8]* %11, i64 0, i64 %145
  %147 = load i8, i8* %146, align 1
  %148 = sext i8 %147 to i32
  %149 = call i32 (i8*, ...) @printf(i8* getelementptr inbounds ([3 x i8], [3 x i8]* @.str.1, i64 0, i64 0), i32 %148)
  br label %150

150:                                              ; preds = %141
  %151 = load i32, i32* %5, align 4
  %152 = add nsw i32 %151, 1
  store i32 %152, i32* %5, align 4
  br label %137

153:                                              ; preds = %137
  %154 = call i32 (i8*, ...) @printf(i8* getelementptr inbounds ([2 x i8], [2 x i8]* @.str.2, i64 0, i64 0))
  br label %155

155:                                              ; preds = %153, %129
  br label %156

156:                                              ; preds = %155
  %157 = load i32, i32* %4, align 4
  %158 = add nsw i32 %157, 1
  store i32 %158, i32* %4, align 4
  br label %125

159:                                              ; preds = %125
  br label %162

160:                                              ; preds = %119
  %161 = call i32 (i8*, ...) @printf(i8* getelementptr inbounds ([4 x i8], [4 x i8]* @.str.3, i64 0, i64 0))
  br label %162

162:                                              ; preds = %160, %159
  %163 = call i32 @getchar()
  %164 = call i32 @getchar()
  %165 = call i32 @getchar()
  %166 = load i32, i32* %1, align 4
  ret i32 %166
}